; ModuleID = '56/870.c'
source_filename = "56/870.c"
target datalayout = "e-m:e-p270:32:32-p271:32:32-p272:64:64-i64:64-f80:128-n8:16:32:64-S128"
target triple = "x86_64-pc-linux-gnu"

@.str = private unnamed_addr constant [3 x i8] c"%d\00", align 1

; Function Attrs: noinline nounwind uwtable
define dso_local i32 @main() #0 {
  %1 = alloca i32, align 4
  %2 = alloca i32, align 4
  %3 = alloca i32, align 4
  %4 = alloca i32, align 4
  %5 = alloca i32, align 4
  %6 = alloca i32, align 4
  %7 = alloca [5 x i32], align 16
  %8 = alloca i32, align 4
  store i32 0, i32* %1, align 4
  store i32 0, i32* %8, align 4
  %9 = call i32 (i8*, ...) @__isoc99_scanf(i8* getelementptr inbounds ([3 x i8], [3 x i8]* @.str, i64 0, i64 0), i32* %2)
  %10 = load i32, i32* %2, align 4
  %11 = sitofp i32 %10 to double
  %12 = call double @log10(double %11) #3
  %13 = fptosi double %12 to i32
  store i32 %13, i32* %5, align 4
  %14 = load i32, i32* %2, align 4
  store i32 %14, i32* %4, align 4
  %15 = load i32, i32* %5, align 4
  store i32 %15, i32* %6, align 4
  br label %16

16:                                               ; preds = %33, %0
  %17 = load i32, i32* %6, align 4
  %18 = icmp sge i32 %17, 0
  br i1 %18, label %19, label %36

19:                                               ; preds = %16
  %20 = load i32, i32* %6, align 4
  %21 = sitofp i32 %20 to double
  %22 = call double @pow(double 1.000000e+01, double %21) #3
  %23 = fptosi double %22 to i32
  store i32 %23, i32* %3, align 4
  %24 = load i32, i32* %4, align 4
  %25 = load i32, i32* %3, align 4
  %26 = sdiv i32 %24, %25
  %27 = load i32, i32* %6, align 4
  %28 = sext i32 %27 to i64
  %29 = getelementptr inbounds [5 x i32], [5 x i32]* %7, i64 0, i64 %28
  store i32 %26, i32* %29, align 4
  %30 = load i32, i32* %4, align 4
  %31 = load i32, i32* %3, align 4
  %32 = srem i32 %30, %31
  store i32 %32, i32* %4, align 4
  br label %33

33:                                               ; preds = %19
  %34 = load i32, i32* %6, align 4
  %35 = add nsw i32 %34, -1
  store i32 %35, i32* %6, align 4
  br label %16

36:                                               ; preds = %16
  store i32 0, i32* %6, align 4
  br label %37

37:                                               ; preds = %57, %36
  %38 = load i32, i32* %6, align 4
  %39 = load i32, i32* %5, align 4
  %40 = icmp sle i32 %38, %39
  br i1 %40, label %41, label %60

41:                                               ; preds = %37
  %42 = load i32, i32* %8, align 4
  %43 = sitofp i32 %42 to double
  %44 = load i32, i32* %5, align 4
  %45 = load i32, i32* %6, align 4
  %46 = sub nsw i32 %44, %45
  %47 = sext i32 %46 to i64
  %48 = getelementptr inbounds [5 x i32], [5 x i32]* %7, i64 0, i64 %47
  %49 = load i32, i32* %48, align 4
  %50 = sitofp i32 %49 to double
  %51 = load i32, i32* %6, align 4
  %52 = sitofp i32 %51 to double
  %53 = call double @pow(double 1.000000e+01, double %52) #3
  %54 = fmul double %50, %53
  %55 = fadd double %43, %54
  %56 = fptosi double %55 to i32
  store i32 %56, i32* %8, align 4
  br label %57

57:                                               ; preds = %41
  %58 = load i32, i32* %6, align 4
  %59 = add nsw i32 %58, 1
  store i32 %59, i32* %6, align 4
  br label %37

60:                                               ; preds = %37
  %61 = load i32, i32* %8, align 4
  %62 = call i32 (i8*, ...) @printf(i8* getelementptr inbounds ([3 x i8], [3 x i8]* @.str, i64 0, i64 0), i32 %61)
  ret i32 0
}

declare dso_local i32 @__isoc99_scanf(i8*, ...) #1

; Function Attrs: nounwind
declare dso_local double @log10(double) #2

; Function Attrs: nounwind
declare dso_local double @pow(double, double) #2

declare dso_local i32 @printf(i8*, ...) #1


!llvm.module.flags = !{!0}
!llvm.ident = !{!1}

!0 = !{i32 1, !"wchar_size", i32 4}
!1 = !{!"clang version 10.0.0-4ubuntu1 "}
